; Function Attrs: nounwind uwtable
define ptr @dt_image_cache_get(ptr noundef %0, i32 noundef %1, i8 noundef signext %2) local_unnamed_addr #0 {
  %4 = icmp sgt i32 %1, 0
  br i1 %4, label %9, label %5

5:                                                ; preds = %3
  %6 = load i32, ptr getelementptr inbounds nuw (i8, ptr @darktable, i64 8), align 8, !tbaa !18
  %7 = and i32 %6, 1
  %.not = icmp eq i32 %7, 0
  br i1 %.not, label %13, label %8

8:                                                ; preds = %5
  tail call void (ptr, ...) @dt_print_ext(ptr noundef nonnull @.str.2, i32 noundef %1) #8
  br label %13

9:                                                ; preds = %3
  %10 = tail call ptr @dt_cache_get_with_caller(ptr noundef %0, i32 noundef %1, i8 noundef signext %2, ptr noundef nonnull @.str.3, i32 noundef 250) #8
  %11 = load ptr, ptr %10, align 8, !tbaa !56
  %12 = getelementptr inbounds nuw i8, ptr %11, i64 1832
  store ptr %10, ptr %12, align 8, !tbaa !113
  br label %13

13:                                               ; preds = %8, %5, %9
  %.0 = phi ptr [ %11, %9 ], [ null, %5 ], [ null, %8 ]
  ret ptr %.0
}